; Function Attrs: nounwind uwtable
define internal noundef ptr @H5O__pline_shared_copy_file(ptr noundef %0, ptr noundef %1, ptr noundef %2, ptr noundef %3, ptr noundef %4, ptr noundef %5, ptr noundef %6) #0 {
  %8 = tail call ptr @H5O__pline_copy(ptr noundef %1, ptr noundef null)
  %9 = icmp eq ptr %8, null
  br i1 %9, label %10, label %14

10:                                               ; preds = %7
  %11 = load i64, ptr @H5E_OHDR_g, align 8
  %12 = load i64, ptr @H5E_CANTCOPY_g, align 8
  %13 = tail call i32 (ptr, ptr, i32, i64, i64, ptr, ...) @H5E_printf_stack(ptr noundef nonnull @.str.4, ptr noundef nonnull @__func__.H5O__pline_shared_copy_file, i32 noundef 307, i64 noundef %11, i64 noundef %12, ptr noundef nonnull @.str.21) #11
  br label %.thread

14:                                               ; preds = %7
  tail call void @llvm.memset.p0.i64(ptr noundef nonnull align 1 dereferenceable(40) %8, i8 0, i64 40, i1 false)
  %15 = tail call i32 @H5O__shared_copy_file(ptr noundef %0, ptr noundef %2, ptr noundef nonnull @H5O_MSG_PLINE, ptr noundef %1, ptr noundef nonnull %8, ptr noundef %3, ptr noundef %4, ptr noundef %5, ptr noundef %6) #11
  %16 = icmp slt i32 %15, 0
  br i1 %16, label %17, label %.thread

17:                                               ; preds = %14
  %18 = load i64, ptr @H5E_OHDR_g, align 8
  %19 = load i64, ptr @H5E_WRITEERROR_g, align 8
  %20 = tail call i32 (ptr, ptr, i32, i64, i64, ptr, ...) @H5E_printf_stack(ptr noundef nonnull @.str.4, ptr noundef nonnull @__func__.H5O__pline_shared_copy_file, i32 noundef 316, i64 noundef %18, i64 noundef %19, ptr noundef nonnull @.str.22) #11
  %21 = tail call ptr @H5O_msg_free(i32 noundef 11, ptr noundef nonnull %8) #11
  br label %.thread

.thread:                                          ; preds = %10, %14, %17
  %.020 = phi ptr [ null, %17 ], [ %8, %14 ], [ null, %10 ]
  ret ptr %.020
}